target datalayout = "e-m:e-p270:32:32-p271:32:32-p272:64:64-i64:64-i128:128-f80:128-n8:16:32:64-S128"
target triple = "x86_64-pc-linux-gnu"

; Function Attrs: noinline nounwind uwtable
define hidden void @_mi_free_generic(ptr noundef %0, ptr noundef %1, i1 noundef zeroext %2, ptr noundef %3) #7 {
  %5 = alloca ptr, align 8
  %6 = alloca ptr, align 8
  %7 = alloca i8, align 1
  %8 = alloca ptr, align 8
  store ptr %0, ptr %5, align 8, !tbaa !9
  store ptr %1, ptr %6, align 8, !tbaa !13
  %9 = zext i1 %2 to i8
  store i8 %9, ptr %7, align 1, !tbaa !11
  store ptr %3, ptr %8, align 8, !tbaa !7
  %10 = load i8, ptr %7, align 1, !tbaa !11, !range !15, !noundef !16
  %11 = trunc i8 %10 to i1
  br i1 %11, label %12, label %16

12:                                               ; preds = %4
  %13 = load ptr, ptr %6, align 8, !tbaa !13
  %14 = load ptr, ptr %5, align 8, !tbaa !9
  %15 = load ptr, ptr %8, align 8, !tbaa !7
  call void @mi_free_generic_local(ptr noundef %13, ptr noundef %14, ptr noundef %15) #14
  br label %20

16:                                               ; preds = %4
  %17 = load ptr, ptr %6, align 8, !tbaa !13
  %18 = load ptr, ptr %5, align 8, !tbaa !9
  %19 = load ptr, ptr %8, align 8, !tbaa !7
  call void @mi_free_generic_mt(ptr noundef %17, ptr noundef %18, ptr noundef %19) #14
  br label %20

20:                                               ; preds = %16, %12
  ret void
}