; Function Attrs: noinline nounwind uwtable
define hidden void @_mi_free_generic(ptr noundef %0, ptr noundef %1, i1 noundef zeroext %2, ptr noundef %3) local_unnamed_addr #7 {
  br i1 %2, label %5, label %6

5:                                                ; preds = %4
  tail call fastcc void @mi_free_generic_local(ptr noundef %1, ptr noundef %3) #20
  br label %7

6:                                                ; preds = %4
  tail call fastcc void @mi_free_generic_mt(ptr noundef %1, ptr noundef %0, ptr noundef %3) #20
  br label %7

7:                                                ; preds = %6, %5
  ret void
}